target datalayout = "e-m:e-p270:32:32-p271:32:32-p272:64:64-i64:64-i128:128-f80:128-n8:16:32:64-S128"
target triple = "x86_64-pc-linux-gnu"

%"class.nanogui::TabWidgetBase" = type { %"class.nanogui::Widget.base", %"class.std::__cxx11::basic_string", %"class.std::vector.4", %"class.std::vector.9", %"class.std::vector.9", i32, i32, i32, i32, i32, i32, i32, i32, i32, i8, i8, ptr, i32, i32, %"class.std::function", %"class.std::function", %"class.std::function.14", %"class.nanogui::Color" }
%"class.nanogui::Widget.base" = type <{ %"class.nanogui::Object.base", [4 x i8], ptr, %"class.nanogui::ref", %"class.nanogui::ref.0", %"struct.nanogui::Array", %"struct.nanogui::Array", %"struct.nanogui::Array", %"class.std::vector", i8, i8, i8, i8, [4 x i8], %"class.std::__cxx11::basic_string", i32, float, i32 }>
%"class.nanogui::Object.base" = type <{ ptr, %"struct.std::atomic" }>
%"struct.std::atomic" = type { %"struct.std::__atomic_base" }
%"struct.std::__atomic_base" = type { i32 }
%"class.nanogui::ref" = type { ptr }
%"class.nanogui::ref.0" = type { ptr }
%"struct.nanogui::Array" = type { [2 x i32] }
%"class.std::vector" = type { %"struct.std::_Vector_base" }
%"struct.std::_Vector_base" = type { %"struct.std::_Vector_base<nanogui::Widget *, std::allocator<nanogui::Widget *>>::_Vector_impl" }
%"struct.std::_Vector_base<nanogui::Widget *, std::allocator<nanogui::Widget *>>::_Vector_impl" = type { %"struct.std::_Vector_base<nanogui::Widget *, std::allocator<nanogui::Widget *>>::_Vector_impl_data" }
%"struct.std::_Vector_base<nanogui::Widget *, std::allocator<nanogui::Widget *>>::_Vector_impl_data" = type { ptr, ptr, ptr }
%"class.std::__cxx11::basic_string" = type { %"struct.std::__cxx11::basic_string<char>::_Alloc_hider", i64, %union.anon }
%"struct.std::__cxx11::basic_string<char>::_Alloc_hider" = type { ptr }
%union.anon = type { i64, [8 x i8] }
%"class.std::vector.4" = type { %"struct.std::_Vector_base.5" }
%"struct.std::_Vector_base.5" = type { %"struct.std::_Vector_base<std::__cxx11::basic_string<char>, std::allocator<std::__cxx11::basic_string<char>>>::_Vector_impl" }
%"struct.std::_Vector_base<std::__cxx11::basic_string<char>, std::allocator<std::__cxx11::basic_string<char>>>::_Vector_impl" = type { %"struct.std::_Vector_base<std::__cxx11::basic_string<char>, std::allocator<std::__cxx11::basic_string<char>>>::_Vector_impl_data" }
%"struct.std::_Vector_base<std::__cxx11::basic_string<char>, std::allocator<std::__cxx11::basic_string<char>>>::_Vector_impl_data" = type { ptr, ptr, ptr }
%"class.std::vector.9" = type { %"struct.std::_Vector_base.10" }
%"struct.std::_Vector_base.10" = type { %"struct.std::_Vector_base<int, std::allocator<int>>::_Vector_impl" }
%"struct.std::_Vector_base<int, std::allocator<int>>::_Vector_impl" = type { %"struct.std::_Vector_base<int, std::allocator<int>>::_Vector_impl_data" }
%"struct.std::_Vector_base<int, std::allocator<int>>::_Vector_impl_data" = type { ptr, ptr, ptr }
%"class.std::function" = type { %"class.std::_Function_base", ptr }
%"class.std::_Function_base" = type { %"union.std::_Any_data", ptr }
%"union.std::_Any_data" = type { %"union.std::_Nocopy_types" }
%"union.std::_Nocopy_types" = type { { i64, i64 } }
%"class.std::function.14" = type { %"class.std::_Function_base", ptr }
%"class.nanogui::Color" = type { %"struct.nanogui::Array.16" }
%"struct.nanogui::Array.16" = type { [4 x float] }
%"class.__gnu_cxx::__normal_iterator.17" = type { ptr }
%"class.nanogui::Widget" = type <{ %"class.nanogui::Object.base", [4 x i8], ptr, %"class.nanogui::ref", %"class.nanogui::ref.0", %"struct.nanogui::Array", %"struct.nanogui::Array", %"struct.nanogui::Array", %"class.std::vector", i8, i8, i8, i8, [4 x i8], %"class.std::__cxx11::basic_string", i32, float, i32, [4 x i8] }>
%"class.nanogui::Theme" = type { %"class.nanogui::Object.base", i32, i32, i32, i32, float, i32, i32, i32, i32, i32, i32, i32, float, i32, i32, i32, i32, i32, i32, %"class.nanogui::Color", %"class.nanogui::Color", %"class.nanogui::Color", %"class.nanogui::Color", %"class.nanogui::Color", %"class.nanogui::Color", %"class.nanogui::Color", %"class.nanogui::Color", %"class.nanogui::Color", %"class.nanogui::Color", %"class.nanogui::Color", %"class.nanogui::Color", %"class.nanogui::Color", %"class.nanogui::Color", %"class.nanogui::Color", %"class.nanogui::Color", %"class.nanogui::Color", %"class.nanogui::Color", %"class.nanogui::Color", %"class.nanogui::Color", %"class.nanogui::Color", %"class.nanogui::Color", %"class.nanogui::Color", %"class.nanogui::Color", %"class.nanogui::Color", i32, i32, i32, i32, i32, i32, i32, i32, i32, i32 }

; Function Attrs: mustprogress nounwind uwtable
define linkonce_odr dso_local noundef nonnull align 8 dereferenceable(8) ptr @_ZNK9__gnu_cxx17__normal_iteratorIPKNSt7__cxx1112basic_stringIcSt11char_traitsIcESaIcEEESt6vectorIS6_SaIS6_EEE4baseEv(ptr noundef nonnull align 8 dereferenceable(8) %0) #2 comdat align 2 {
  %2 = alloca ptr, align 8
  store ptr %0, ptr %2, align 8
  %3 = load ptr, ptr %2, align 8
  %4 = getelementptr inbounds %"class.__gnu_cxx::__normal_iterator.17", ptr %3, i32 0, i32 0
  ret ptr %4
}

; Function Attrs: mustprogress nounwind uwtable
define linkonce_odr dso_local void @_ZN9__gnu_cxx17__normal_iteratorIPKNSt7__cxx1112basic_stringIcSt11char_traitsIcESaIcEEESt6vectorIS6_SaIS6_EEEC2ERKS8_(ptr noundef nonnull align 8 dereferenceable(8) %0, ptr noundef nonnull align 8 dereferenceable(8) %1) unnamed_addr #2 comdat align 2 {
  %3 = alloca ptr, align 8
  %4 = alloca ptr, align 8
  store ptr %0, ptr %3, align 8
  store ptr %1, ptr %4, align 8
  %5 = load ptr, ptr %3, align 8
  %6 = getelementptr inbounds %"class.__gnu_cxx::__normal_iterator.17", ptr %5, i32 0, i32 0
  %7 = load ptr, ptr %4, align 8
  %8 = load ptr, ptr %7, align 8
  store ptr %8, ptr %6, align 8
  ret void
}

; Function Attrs: mustprogress nounwind uwtable
define linkonce_odr hidden void @_ZN7nanogui5ArrayIiLm2EEC2ILm2ETnNSt9enable_ifIXeqT_Li2EEiE4typeELi0EEEii(ptr noundef nonnull align 4 dereferenceable(8) %0, i32 noundef %1, i32 noundef %2) unnamed_addr #2 comdat align 2 {
  %4 = alloca ptr, align 8
  %5 = alloca i32, align 4
  %6 = alloca i32, align 4
  store ptr %0, ptr %4, align 8
  store i32 %1, ptr %5, align 4
  store i32 %2, ptr %6, align 4
  %7 = load ptr, ptr %4, align 8
  %8 = load i32, ptr %5, align 4
  %9 = getelementptr inbounds %"struct.nanogui::Array", ptr %7, i32 0, i32 0
  %10 = getelementptr inbounds [2 x i32], ptr %9, i64 0, i64 0
  store i32 %8, ptr %10, align 4
  %11 = load i32, ptr %6, align 4
  %12 = getelementptr inbounds %"struct.nanogui::Array", ptr %7, i32 0, i32 0
  %13 = getelementptr inbounds [2 x i32], ptr %12, i64 0, i64 1
  store i32 %11, ptr %13, align 4
  ret void
}

; Function Attrs: mustprogress nounwind uwtable
define linkonce_odr dso_local noundef nonnull align 8 dereferenceable(8) ptr @_ZN9__gnu_cxx17__normal_iteratorIPKNSt7__cxx1112basic_stringIcSt11char_traitsIcESaIcEEESt6vectorIS6_SaIS6_EEEppEv(ptr noundef nonnull align 8 dereferenceable(8) %0) #2 comdat align 2 {
  %2 = alloca ptr, align 8
  store ptr %0, ptr %2, align 8
  %3 = load ptr, ptr %2, align 8
  %4 = getelementptr inbounds %"class.__gnu_cxx::__normal_iterator.17", ptr %3, i32 0, i32 0
  %5 = load ptr, ptr %4, align 8
  %6 = getelementptr inbounds %"class.std::__cxx11::basic_string", ptr %5, i32 1
  store ptr %6, ptr %4, align 8
  ret ptr %3
}

; Function Attrs: mustprogress nounwind uwtable
define linkonce_odr hidden noundef ptr @_ZNK7nanogui3refINS_5ThemeEEptEv(ptr noundef nonnull align 8 dereferenceable(8) %0) #2 comdat align 2 {
  %2 = alloca ptr, align 8
  store ptr %0, ptr %2, align 8
  %3 = load ptr, ptr %2, align 8
  %4 = getelementptr inbounds %"class.nanogui::ref", ptr %3, i32 0, i32 0
  %5 = load ptr, ptr %4, align 8
  ret ptr %5
}

; Function Attrs: mustprogress nounwind uwtable
define linkonce_odr dso_local noundef nonnull align 8 dereferenceable(32) ptr @_ZNK9__gnu_cxx17__normal_iteratorIPKNSt7__cxx1112basic_stringIcSt11char_traitsIcESaIcEEESt6vectorIS6_SaIS6_EEEdeEv(ptr noundef nonnull align 8 dereferenceable(8) %0) #2 comdat align 2 {
  %2 = alloca ptr, align 8
  store ptr %0, ptr %2, align 8
  %3 = load ptr, ptr %2, align 8
  %4 = getelementptr inbounds %"class.__gnu_cxx::__normal_iterator.17", ptr %3, i32 0, i32 0
  %5 = load ptr, ptr %4, align 8
  ret ptr %5
}

; Function Attrs: mustprogress nounwind uwtable
define linkonce_odr dso_local noundef zeroext i1 @_ZN9__gnu_cxxneIPKNSt7__cxx1112basic_stringIcSt11char_traitsIcESaIcEEESt6vectorIS6_SaIS6_EEEEbRKNS_17__normal_iteratorIT_T0_EESH_(ptr noundef nonnull align 8 dereferenceable(8) %0, ptr noundef nonnull align 8 dereferenceable(8) %1) #2 comdat {
  %3 = alloca ptr, align 8
  %4 = alloca ptr, align 8
  store ptr %0, ptr %3, align 8
  store ptr %1, ptr %4, align 8
  %5 = load ptr, ptr %3, align 8
  %6 = call noundef nonnull align 8 dereferenceable(8) ptr @_ZNK9__gnu_cxx17__normal_iteratorIPKNSt7__cxx1112basic_stringIcSt11char_traitsIcESaIcEEESt6vectorIS6_SaIS6_EEE4baseEv(ptr noundef nonnull align 8 dereferenceable(8) %5) #13
  %7 = load ptr, ptr %6, align 8
  %8 = load ptr, ptr %4, align 8
  %9 = call noundef nonnull align 8 dereferenceable(8) ptr @_ZNK9__gnu_cxx17__normal_iteratorIPKNSt7__cxx1112basic_stringIcSt11char_traitsIcESaIcEEESt6vectorIS6_SaIS6_EEE4baseEv(ptr noundef nonnull align 8 dereferenceable(8) %8) #13
  %10 = load ptr, ptr %9, align 8
  %11 = icmp ne ptr %7, %10
  ret i1 %11
}

; Function Attrs: mustprogress nounwind uwtable
define linkonce_odr dso_local ptr @_ZNKSt6vectorINSt7__cxx1112basic_stringIcSt11char_traitsIcESaIcEEESaIS5_EE3endEv(ptr noundef nonnull align 8 dereferenceable(24) %0) #2 comdat align 2 {
  %2 = alloca %"class.__gnu_cxx::__normal_iterator.17", align 8
  %3 = alloca ptr, align 8
  store ptr %0, ptr %3, align 8
  %4 = load ptr, ptr %3, align 8
  %5 = getelementptr inbounds %"struct.std::_Vector_base.5", ptr %4, i32 0, i32 0
  %6 = getelementptr inbounds %"struct.std::_Vector_base<std::__cxx11::basic_string<char>, std::allocator<std::__cxx11::basic_string<char>>>::_Vector_impl_data", ptr %5, i32 0, i32 1
  call void @_ZN9__gnu_cxx17__normal_iteratorIPKNSt7__cxx1112basic_stringIcSt11char_traitsIcESaIcEEESt6vectorIS6_SaIS6_EEEC2ERKS8_(ptr noundef nonnull align 8 dereferenceable(8) %2, ptr noundef nonnull align 8 dereferenceable(8) %6) #13
  %7 = getelementptr inbounds %"class.__gnu_cxx::__normal_iterator.17", ptr %2, i32 0, i32 0
  %8 = load ptr, ptr %7, align 8
  ret ptr %8
}

; Function Attrs: mustprogress nounwind uwtable
define linkonce_odr dso_local ptr @_ZNKSt6vectorINSt7__cxx1112basic_stringIcSt11char_traitsIcESaIcEEESaIS5_EE5beginEv(ptr noundef nonnull align 8 dereferenceable(24) %0) #2 comdat align 2 {
  %2 = alloca %"class.__gnu_cxx::__normal_iterator.17", align 8
  %3 = alloca ptr, align 8
  store ptr %0, ptr %3, align 8
  %4 = load ptr, ptr %3, align 8
  %5 = getelementptr inbounds %"struct.std::_Vector_base.5", ptr %4, i32 0, i32 0
  %6 = getelementptr inbounds %"struct.std::_Vector_base<std::__cxx11::basic_string<char>, std::allocator<std::__cxx11::basic_string<char>>>::_Vector_impl_data", ptr %5, i32 0, i32 0
  call void @_ZN9__gnu_cxx17__normal_iteratorIPKNSt7__cxx1112basic_stringIcSt11char_traitsIcESaIcEEESt6vectorIS6_SaIS6_EEEC2ERKS8_(ptr noundef nonnull align 8 dereferenceable(8) %2, ptr noundef nonnull align 8 dereferenceable(8) %6) #13
  %7 = getelementptr inbounds %"class.__gnu_cxx::__normal_iterator.17", ptr %2, i32 0, i32 0
  %8 = load ptr, ptr %7, align 8
  ret ptr %8
}

; Function Attrs: mustprogress uwtable
define hidden i64 @_ZNK7nanogui13TabWidgetBase14preferred_sizeEP10NVGcontext(ptr noundef nonnull align 8 dereferenceable(416) %0, ptr noundef %1) unnamed_addr #0 align 2 {
  %3 = alloca %"struct.nanogui::Array", align 4
  %4 = alloca ptr, align 8
  %5 = alloca ptr, align 8
  %6 = alloca i32, align 4
  %7 = alloca ptr, align 8
  %8 = alloca %"class.__gnu_cxx::__normal_iterator.17", align 8
  %9 = alloca %"class.__gnu_cxx::__normal_iterator.17", align 8
  %10 = alloca ptr, align 8
  %11 = alloca [4 x float], align 16
  %12 = alloca i32, align 4
  store ptr %0, ptr %4, align 8
  store ptr %1, ptr %5, align 8
  %13 = load ptr, ptr %4, align 8
  %14 = load ptr, ptr %5, align 8
  %15 = getelementptr inbounds %"class.nanogui::TabWidgetBase", ptr %13, i32 0, i32 1
  %16 = call noundef ptr @_ZNKSt7__cxx1112basic_stringIcSt11char_traitsIcESaIcEE5c_strEv(ptr noundef nonnull align 8 dereferenceable(32) %15) #13
  call void @nvgFontFace(ptr noundef %14, ptr noundef %16)
  %17 = load ptr, ptr %5, align 8
  %18 = call noundef i32 @_ZNK7nanogui6Widget9font_sizeEv(ptr noundef nonnull align 8 dereferenceable(140) %13)
  %19 = sitofp i32 %18 to float
  call void @nvgFontSize(ptr noundef %17, float noundef %19)
  %20 = load ptr, ptr %5, align 8
  call void @nvgTextAlign(ptr noundef %20, i32 noundef 9)
  store i32 0, ptr %6, align 4
  %21 = getelementptr inbounds %"class.nanogui::TabWidgetBase", ptr %13, i32 0, i32 2
  store ptr %21, ptr %7, align 8
  %22 = load ptr, ptr %7, align 8
  %23 = call ptr @_ZNKSt6vectorINSt7__cxx1112basic_stringIcSt11char_traitsIcESaIcEEESaIS5_EE5beginEv(ptr noundef nonnull align 8 dereferenceable(24) %22) #13
  %24 = getelementptr inbounds %"class.__gnu_cxx::__normal_iterator.17", ptr %8, i32 0, i32 0
  store ptr %23, ptr %24, align 8
  %25 = load ptr, ptr %7, align 8
  %26 = call ptr @_ZNKSt6vectorINSt7__cxx1112basic_stringIcSt11char_traitsIcESaIcEEESaIS5_EE3endEv(ptr noundef nonnull align 8 dereferenceable(24) %25) #13
  %27 = getelementptr inbounds %"class.__gnu_cxx::__normal_iterator.17", ptr %9, i32 0, i32 0
  store ptr %26, ptr %27, align 8
  br label %28

28:                                               ; preds = %56, %2
  %29 = call noundef zeroext i1 @_ZN9__gnu_cxxneIPKNSt7__cxx1112basic_stringIcSt11char_traitsIcESaIcEEESt6vectorIS6_SaIS6_EEEEbRKNS_17__normal_iteratorIT_T0_EESH_(ptr noundef nonnull align 8 dereferenceable(8) %8, ptr noundef nonnull align 8 dereferenceable(8) %9) #13
  br i1 %29, label %30, label %58

30:                                               ; preds = %28
  %31 = call noundef nonnull align 8 dereferenceable(32) ptr @_ZNK9__gnu_cxx17__normal_iteratorIPKNSt7__cxx1112basic_stringIcSt11char_traitsIcESaIcEEESt6vectorIS6_SaIS6_EEEdeEv(ptr noundef nonnull align 8 dereferenceable(8) %8) #13
  store ptr %31, ptr %10, align 8
  %32 = load ptr, ptr %5, align 8
  %33 = load ptr, ptr %10, align 8
  %34 = call noundef ptr @_ZNKSt7__cxx1112basic_stringIcSt11char_traitsIcESaIcEE5c_strEv(ptr noundef nonnull align 8 dereferenceable(32) %33) #13
  %35 = getelementptr inbounds [4 x float], ptr %11, i64 0, i64 0
  %36 = call float @nvgTextBounds(ptr noundef %32, float noundef 0.000000e+00, float noundef 0.000000e+00, ptr noundef %34, ptr noundef null, ptr noundef %35)
  %37 = fptosi float %36 to i32
  store i32 %37, ptr %12, align 4
  %38 = load i32, ptr %12, align 4
  %39 = getelementptr inbounds %"class.nanogui::Widget", ptr %13, i32 0, i32 3
  %40 = call noundef ptr @_ZNK7nanogui3refINS_5ThemeEEptEv(ptr noundef nonnull align 8 dereferenceable(8) %39)
  %41 = getelementptr inbounds %"class.nanogui::Theme", ptr %40, i32 0, i32 18
  %42 = load i32, ptr %41, align 8
  %43 = mul nsw i32 2, %42
  %44 = add nsw i32 %38, %43
  %45 = load i32, ptr %6, align 4
  %46 = add nsw i32 %45, %44
  store i32 %46, ptr %6, align 4
  %47 = getelementptr inbounds %"class.nanogui::TabWidgetBase", ptr %13, i32 0, i32 15
  %48 = load i8, ptr %47, align 1
  %49 = trunc i8 %48 to i1
  br i1 %49, label %50, label %55

50:                                               ; preds = %30
  %51 = getelementptr inbounds %"class.nanogui::TabWidgetBase", ptr %13, i32 0, i32 5
  %52 = load i32, ptr %51, align 8
  %53 = load i32, ptr %6, align 4
  %54 = add nsw i32 %53, %52
  store i32 %54, ptr %6, align 4
  br label %55

55:                                               ; preds = %50, %30
  br label %56

56:                                               ; preds = %55
  %57 = call noundef nonnull align 8 dereferenceable(8) ptr @_ZN9__gnu_cxx17__normal_iteratorIPKNSt7__cxx1112basic_stringIcSt11char_traitsIcESaIcEEESt6vectorIS6_SaIS6_EEEppEv(ptr noundef nonnull align 8 dereferenceable(8) %8) #13
  br label %28

58:                                               ; preds = %28
  %59 = load i32, ptr %6, align 4
  %60 = add nsw i32 %59, 1
  %61 = call noundef i32 @_ZNK7nanogui6Widget9font_sizeEv(ptr noundef nonnull align 8 dereferenceable(140) %13)
  %62 = getelementptr inbounds %"class.nanogui::Widget", ptr %13, i32 0, i32 3
  %63 = call noundef ptr @_ZNK7nanogui3refINS_5ThemeEEptEv(ptr noundef nonnull align 8 dereferenceable(8) %62)
  %64 = getelementptr inbounds %"class.nanogui::Theme", ptr %63, i32 0, i32 19
  %65 = load i32, ptr %64, align 4
  %66 = mul nsw i32 2, %65
  %67 = add nsw i32 %61, %66
  %68 = getelementptr inbounds %"class.nanogui::TabWidgetBase", ptr %13, i32 0, i32 18
  %69 = load i32, ptr %68, align 4
  %70 = mul nsw i32 2, %69
  %71 = add nsw i32 %67, %70
  call void @_ZN7nanogui5ArrayIiLm2EEC2ILm2ETnNSt9enable_ifIXeqT_Li2EEiE4typeELi0EEEii(ptr noundef nonnull align 4 dereferenceable(8) %3, i32 noundef %60, i32 noundef %71)
  %72 = getelementptr inbounds %"struct.nanogui::Array", ptr %3, i32 0, i32 0
  %73 = load i64, ptr %72, align 4
  ret i64 %73
}