; Function Attrs: mustprogress uwtable
define hidden i64 @_ZNK7nanogui13TabWidgetBase14preferred_sizeEP10NVGcontext(ptr noundef nonnull align 8 dereferenceable(416) %0, ptr noundef %1) unnamed_addr #0 align 2 {
  %3 = alloca [4 x float], align 16
  %4 = getelementptr inbounds i8, ptr %0, i64 144
  %5 = tail call noundef ptr @_ZNKSt7__cxx1112basic_stringIcSt11char_traitsIcESaIcEE5c_strEv(ptr noundef nonnull align 8 dereferenceable(32) %4) #18
  tail call void @nvgFontFace(ptr noundef %1, ptr noundef %5)
  %6 = tail call noundef i32 @_ZNK7nanogui6Widget9font_sizeEv(ptr noundef nonnull align 8 dereferenceable(140) %0)
  %7 = sitofp i32 %6 to float
  tail call void @nvgFontSize(ptr noundef %1, float noundef %7)
  tail call void @nvgTextAlign(ptr noundef %1, i32 noundef 9)
  %8 = getelementptr inbounds i8, ptr %0, i64 176
  %9 = load ptr, ptr %8, align 8
  %10 = getelementptr inbounds i8, ptr %0, i64 184
  %11 = load ptr, ptr %10, align 8
  %.not1516 = icmp eq ptr %9, %11
  br i1 %.not1516, label %._crit_edge, label %.lr.ph

.lr.ph:                                           ; preds = %2
  %12 = getelementptr inbounds i8, ptr %0, i64 24
  %13 = getelementptr inbounds i8, ptr %0, i64 285
  %14 = getelementptr inbounds i8, ptr %0, i64 248
  br label %15

15:                                               ; preds = %.lr.ph, %15
  %.018 = phi i32 [ 0, %.lr.ph ], [ %.1, %15 ]
  %.sroa.011.017 = phi ptr [ %9, %.lr.ph ], [ %29, %15 ]
  %16 = call noundef ptr @_ZNKSt7__cxx1112basic_stringIcSt11char_traitsIcESaIcEE5c_strEv(ptr noundef nonnull align 8 dereferenceable(32) %.sroa.011.017) #18
  %17 = call float @nvgTextBounds(ptr noundef %1, float noundef 0.000000e+00, float noundef 0.000000e+00, ptr noundef %16, ptr noundef null, ptr noundef nonnull %3)
  %18 = fptosi float %17 to i32
  %19 = load ptr, ptr %12, align 8
  %20 = getelementptr inbounds i8, ptr %19, i64 80
  %21 = load i32, ptr %20, align 8
  %22 = shl nsw i32 %21, 1
  %23 = load i8, ptr %13, align 1
  %24 = and i8 %23, 1
  %.not = icmp eq i8 %24, 0
  %25 = load i32, ptr %14, align 8
  %26 = select i1 %.not, i32 0, i32 %25
  %27 = add i32 %.018, %18
  %28 = add i32 %27, %22
  %.1 = add nsw i32 %28, %26
  %29 = getelementptr inbounds i8, ptr %.sroa.011.017, i64 32
  %.not15 = icmp eq ptr %29, %11
  br i1 %.not15, label %._crit_edge.loopexit, label %15

._crit_edge.loopexit:                             ; preds = %15
  %30 = add nsw i32 %.1, 1
  %31 = zext i32 %30 to i64
  br label %._crit_edge

._crit_edge:                                      ; preds = %._crit_edge.loopexit, %2
  %.0.lcssa = phi i64 [ 1, %2 ], [ %31, %._crit_edge.loopexit ]
  %32 = call noundef i32 @_ZNK7nanogui6Widget9font_sizeEv(ptr noundef nonnull align 8 dereferenceable(140) %0)
  %33 = getelementptr inbounds i8, ptr %0, i64 24
  %34 = load ptr, ptr %33, align 8
  %35 = getelementptr inbounds i8, ptr %34, i64 84
  %36 = load i32, ptr %35, align 4
  %37 = getelementptr inbounds i8, ptr %0, i64 300
  %38 = load i32, ptr %37, align 4
  %reass.add = add i32 %38, %36
  %reass.mul = shl i32 %reass.add, 1
  %39 = add i32 %reass.mul, %32
  %.sroa.2.0.insert.ext = zext i32 %39 to i64
  %.sroa.2.0.insert.shift = shl nuw i64 %.sroa.2.0.insert.ext, 32
  %.sroa.014.0.insert.insert = or disjoint i64 %.sroa.2.0.insert.shift, %.0.lcssa
  ret i64 %.sroa.014.0.insert.insert
}